#include <math.h>
#include <stdio.h>
#include <stdlib.h>
#include <string.h>

void main()
{
	int j,num[301]={0},p,i,n;
	scanf("%d",&n);
	for(i=0;i<n;i++)
		scanf("%d",&num[i]);
	for(i=0;i<n;i++)
	{
		for(j=i+1;j<n;j++)
		{
			if(num[i]==num[j])
			{
				for(p=0;p<n-j-1;p++)
					num[j+p]=num[j+p+1];
				n--;
				j--;
			}
		}
	}
	printf("%d",num[0]);
	for(i=1;i<n;i++)
		printf(",%d",num[i]);
}