; ModuleID = '53/89.c'
source_filename = "53/89.c"
target datalayout = "e-m:e-p270:32:32-p271:32:32-p272:64:64-i64:64-f80:128-n8:16:32:64-S128"
target triple = "x86_64-pc-linux-gnu"

@.str = private unnamed_addr constant [3 x i8] c"%d\00", align 1
@.str.1 = private unnamed_addr constant [4 x i8] c",%d\00", align 1

; Function Attrs: noinline nounwind uwtable
define dso_local void @main() #0 {
  %1 = alloca i32, align 4
  %2 = alloca [301 x i32], align 16
  %3 = alloca i32, align 4
  %4 = alloca i32, align 4
  %5 = alloca i32, align 4
  %6 = bitcast [301 x i32]* %2 to i8*
  call void @llvm.memset.p0i8.i64(i8* align 16 %6, i8 0, i64 1204, i1 false)
  %7 = call i32 (i8*, ...) @__isoc99_scanf(i8* getelementptr inbounds ([3 x i8], [3 x i8]* @.str, i64 0, i64 0), i32* %5)
  store i32 0, i32* %4, align 4
  br label %8

8:                                                ; preds = %17, %0
  %9 = load i32, i32* %4, align 4
  %10 = load i32, i32* %5, align 4
  %11 = icmp slt i32 %9, %10
  br i1 %11, label %12, label %20

12:                                               ; preds = %8
  %13 = load i32, i32* %4, align 4
  %14 = sext i32 %13 to i64
  %15 = getelementptr inbounds [301 x i32], [301 x i32]* %2, i64 0, i64 %14
  %16 = call i32 (i8*, ...) @__isoc99_scanf(i8* getelementptr inbounds ([3 x i8], [3 x i8]* @.str, i64 0, i64 0), i32* %15)
  br label %17

17:                                               ; preds = %12
  %18 = load i32, i32* %4, align 4
  %19 = add nsw i32 %18, 1
  store i32 %19, i32* %4, align 4
  br label %8

20:                                               ; preds = %8
  store i32 0, i32* %4, align 4
  br label %21

21:                                               ; preds = %76, %20
  %22 = load i32, i32* %4, align 4
  %23 = load i32, i32* %5, align 4
  %24 = icmp slt i32 %22, %23
  br i1 %24, label %25, label %79

25:                                               ; preds = %21
  %26 = load i32, i32* %4, align 4
  %27 = add nsw i32 %26, 1
  store i32 %27, i32* %1, align 4
  br label %28

28:                                               ; preds = %72, %25
  %29 = load i32, i32* %1, align 4
  %30 = load i32, i32* %5, align 4
  %31 = icmp slt i32 %29, %30
  br i1 %31, label %32, label %75

32:                                               ; preds = %28
  %33 = load i32, i32* %4, align 4
  %34 = sext i32 %33 to i64
  %35 = getelementptr inbounds [301 x i32], [301 x i32]* %2, i64 0, i64 %34
  %36 = load i32, i32* %35, align 4
  %37 = load i32, i32* %1, align 4
  %38 = sext i32 %37 to i64
  %39 = getelementptr inbounds [301 x i32], [301 x i32]* %2, i64 0, i64 %38
  %40 = load i32, i32* %39, align 4
  %41 = icmp eq i32 %36, %40
  br i1 %41, label %42, label %71

42:                                               ; preds = %32
  store i32 0, i32* %3, align 4
  br label %43

43:                                               ; preds = %63, %42
  %44 = load i32, i32* %3, align 4
  %45 = load i32, i32* %5, align 4
  %46 = load i32, i32* %1, align 4
  %47 = sub nsw i32 %45, %46
  %48 = sub nsw i32 %47, 1
  %49 = icmp slt i32 %44, %48
  br i1 %49, label %50, label %66

50:                                               ; preds = %43
  %51 = load i32, i32* %1, align 4
  %52 = load i32, i32* %3, align 4
  %53 = add nsw i32 %51, %52
  %54 = add nsw i32 %53, 1
  %55 = sext i32 %54 to i64
  %56 = getelementptr inbounds [301 x i32], [301 x i32]* %2, i64 0, i64 %55
  %57 = load i32, i32* %56, align 4
  %58 = load i32, i32* %1, align 4
  %59 = load i32, i32* %3, align 4
  %60 = add nsw i32 %58, %59
  %61 = sext i32 %60 to i64
  %62 = getelementptr inbounds [301 x i32], [301 x i32]* %2, i64 0, i64 %61
  store i32 %57, i32* %62, align 4
  br label %63

63:                                               ; preds = %50
  %64 = load i32, i32* %3, align 4
  %65 = add nsw i32 %64, 1
  store i32 %65, i32* %3, align 4
  br label %43

66:                                               ; preds = %43
  %67 = load i32, i32* %5, align 4
  %68 = add nsw i32 %67, -1
  store i32 %68, i32* %5, align 4
  %69 = load i32, i32* %1, align 4
  %70 = add nsw i32 %69, -1
  store i32 %70, i32* %1, align 4
  br label %71

71:                                               ; preds = %66, %32
  br label %72

72:                                               ; preds = %71
  %73 = load i32, i32* %1, align 4
  %74 = add nsw i32 %73, 1
  store i32 %74, i32* %1, align 4
  br label %28

75:                                               ; preds = %28
  br label %76

76:                                               ; preds = %75
  %77 = load i32, i32* %4, align 4
  %78 = add nsw i32 %77, 1
  store i32 %78, i32* %4, align 4
  br label %21

79:                                               ; preds = %21
  %80 = getelementptr inbounds [301 x i32], [301 x i32]* %2, i64 0, i64 0
  %81 = load i32, i32* %80, align 16
  %82 = call i32 (i8*, ...) @printf(i8* getelementptr inbounds ([3 x i8], [3 x i8]* @.str, i64 0, i64 0), i32 %81)
  store i32 1, i32* %4, align 4
  br label %83

83:                                               ; preds = %93, %79
  %84 = load i32, i32* %4, align 4
  %85 = load i32, i32* %5, align 4
  %86 = icmp slt i32 %84, %85
  br i1 %86, label %87, label %96

87:                                               ; preds = %83
  %88 = load i32, i32* %4, align 4
  %89 = sext i32 %88 to i64
  %90 = getelementptr inbounds [301 x i32], [301 x i32]* %2, i64 0, i64 %89
  %91 = load i32, i32* %90, align 4
  %92 = call i32 (i8*, ...) @printf(i8* getelementptr inbounds ([4 x i8], [4 x i8]* @.str.1, i64 0, i64 0), i32 %91)
  br label %93

93:                                               ; preds = %87
  %94 = load i32, i32* %4, align 4
  %95 = add nsw i32 %94, 1
  store i32 %95, i32* %4, align 4
  br label %83

96:                                               ; preds = %83
  ret void
}

; Function Attrs: argmemonly nounwind willreturn
declare void @llvm.memset.p0i8.i64(i8* nocapture writeonly, i8, i64, i1 immarg) #1

declare dso_local i32 @__isoc99_scanf(i8*, ...) #2

declare dso_local i32 @printf(i8*, ...) #2


!llvm.module.flags = !{!0}
!llvm.ident = !{!1}

!0 = !{i32 1, !"wchar_size", i32 4}
!1 = !{!"clang version 10.0.0-4ubuntu1 "}
